; Function Attrs: nofree norecurse nosync nounwind memory(argmem: write) uwtable
define dso_local i32 @reverse_tree_direct_children(i32 noundef %0, i32 noundef %1, i32 noundef %2, i32 noundef %3, ptr noundef writeonly captures(none) %4) local_unnamed_addr #0 {
  %6 = icmp sgt i32 %2, %1
  br i1 %6, label %.loopexit, label %7

7:                                                ; preds = %5
  %8 = add nsw i32 %1, -1
  %9 = icmp sgt i32 %1, 1
  br i1 %9, label %.lr.ph.i, label %dep.exit

.lr.ph.i:                                         ; preds = %7, %int_pow.exit.i
  %.09.i = phi i32 [ %13, %int_pow.exit.i ], [ 0, %7 ]
  %.078.i = phi i32 [ %14, %int_pow.exit.i ], [ 1, %7 ]
  %10 = icmp samesign ugt i32 %.078.i, 1
  br i1 %10, label %.lr.ph.i.i, label %int_pow.exit.i

.lr.ph.i.i:                                       ; preds = %.lr.ph.i, %.lr.ph.i.i
  %.013.i.i = phi i32 [ %12, %.lr.ph.i.i ], [ 1, %.lr.ph.i ]
  %.112.i.i = phi i32 [ %11, %.lr.ph.i.i ], [ %2, %.lr.ph.i ]
  %11 = mul nsw i32 %.112.i.i, %2
  %12 = add nuw nsw i32 %.013.i.i, 1
  %exitcond.not.i.i = icmp eq i32 %12, %.078.i
  br i1 %exitcond.not.i.i, label %int_pow.exit.i, label %.lr.ph.i.i, !llvm.loop !8

int_pow.exit.i:                                   ; preds = %.lr.ph.i.i, %.lr.ph.i
  %.010.i.i = phi i32 [ %2, %.lr.ph.i ], [ %11, %.lr.ph.i.i ]
  %13 = add nsw i32 %.010.i.i, %.09.i
  %14 = add nuw nsw i32 %.078.i, 1
  %15 = icmp slt i32 %13, %8
  br i1 %15, label %.lr.ph.i, label %dep.exit, !llvm.loop !11

dep.exit:                                         ; preds = %int_pow.exit.i, %7
  %.07.lcssa.i = phi i32 [ 0, %7 ], [ %.078.i, %int_pow.exit.i ]
  %16 = icmp eq i32 %.07.lcssa.i, %3
  br i1 %16, label %.loopexit, label %17

17:                                               ; preds = %dep.exit
  %18 = sub nsw i32 %.07.lcssa.i, %3
  %19 = icmp eq i32 %2, 1
  br i1 %19, label %20, label %22

20:                                               ; preds = %17
  %21 = add nsw i32 %18, 1
  br label %geometric_series.exit

22:                                               ; preds = %17
  switch i32 %18, label %.preheader.i.i [
    i32 -1, label %int_pow.exit.i28
    i32 0, label %24
  ]

.preheader.i.i:                                   ; preds = %22
  %23 = icmp sgt i32 %18, 0
  br i1 %23, label %.lr.ph.i.i30, label %int_pow.exit.i28

24:                                               ; preds = %22
  br label %int_pow.exit.i28

.lr.ph.i.i30:                                     ; preds = %.preheader.i.i, %.lr.ph.i.i30
  %.013.i.i31 = phi i32 [ %26, %.lr.ph.i.i30 ], [ 1, %.preheader.i.i ]
  %.112.i.i32 = phi i32 [ %25, %.lr.ph.i.i30 ], [ %2, %.preheader.i.i ]
  %25 = mul nsw i32 %.112.i.i32, %2
  %26 = add nuw nsw i32 %.013.i.i31, 1
  %exitcond.not.i.i33 = icmp eq i32 %.013.i.i31, %18
  br i1 %exitcond.not.i.i33, label %int_pow.exit.i28, label %.lr.ph.i.i30, !llvm.loop !8

int_pow.exit.i28:                                 ; preds = %.lr.ph.i.i30, %24, %.preheader.i.i, %22
  %.010.i.i29 = phi i32 [ %2, %24 ], [ 1, %22 ], [ %2, %.preheader.i.i ], [ %25, %.lr.ph.i.i30 ]
  %27 = sub nsw i32 1, %.010.i.i29
  %28 = sub nsw i32 1, %2
  %29 = sdiv i32 %27, %28
  br label %geometric_series.exit

geometric_series.exit:                            ; preds = %20, %int_pow.exit.i28
  %30 = phi i32 [ %21, %20 ], [ %29, %int_pow.exit.i28 ]
  %31 = add nsw i32 %0, 1
  %32 = sdiv i32 %30, %2
  %33 = icmp sgt i32 %2, 0
  %34 = icmp slt i32 %31, %1
  %35 = select i1 %33, i1 %34, i1 false
  br i1 %35, label %.lr.ph.preheader, label %.loopexit

.lr.ph.preheader:                                 ; preds = %geometric_series.exit
  %36 = zext nneg i32 %2 to i64
  br label %.lr.ph

.lr.ph:                                           ; preds = %.lr.ph.preheader, %.lr.ph
  %indvars.iv = phi i64 [ 0, %.lr.ph.preheader ], [ %indvars.iv.next, %.lr.ph ]
  %.02435 = phi i32 [ %31, %.lr.ph.preheader ], [ %38, %.lr.ph ]
  %37 = getelementptr inbounds nuw i32, ptr %4, i64 %indvars.iv
  store i32 %.02435, ptr %37, align 4
  %38 = add nsw i32 %.02435, %32
  %indvars.iv.next = add nuw nsw i64 %indvars.iv, 1
  %39 = icmp samesign ult i64 %indvars.iv.next, %36
  %40 = icmp slt i32 %38, %1
  %41 = select i1 %39, i1 %40, i1 false
  br i1 %41, label %.lr.ph, label %.loopexit.loopexit, !llvm.loop !13

.loopexit.loopexit:                               ; preds = %.lr.ph
  %42 = trunc nuw nsw i64 %indvars.iv.next to i32
  br label %.loopexit

.loopexit:                                        ; preds = %.loopexit.loopexit, %geometric_series.exit, %dep.exit, %5
  %.023 = phi i32 [ 0, %5 ], [ 0, %dep.exit ], [ 0, %geometric_series.exit ], [ %42, %.loopexit.loopexit ]
  ret i32 %.023
}